target datalayout = "e-m:e-p270:32:32-p271:32:32-p272:64:64-i64:64-i128:128-f80:128-n8:16:32:64-S128"
target triple = "x86_64-pc-linux-gnu"

%struct.AVFilterContext = type { ptr, ptr, ptr, ptr, ptr, i32, ptr, ptr, i32, ptr, ptr, i32, i32, ptr, ptr, ptr, ptr, i32, ptr, i32, i32 }
%struct.CorrContext = type { ptr, %struct.FFFrameSync, double, double, double, [4 x double], i64, i32, i32, [4 x i8], [4 x i32], [4 x i8], [4 x [2 x float]], ptr, ptr, i32, [4 x i32], [4 x i32], ptr, ptr }
%struct.FFFrameSync = type { ptr, ptr, i32, %struct.AVRational, i64, ptr, ptr, i32, i32, i8, i8, ptr, i32, i32, i32, i32 }
%struct.AVRational = type { i32, i32 }
%struct.AVFilter = type { ptr, ptr, ptr, ptr, ptr, i32 }

@.str.13 = private unnamed_addr constant [7 x i8] c" %c:%f\00", align 1
@.str.14 = private unnamed_addr constant [31 x i8] c"%s%s average:%f min:%f max:%f\0A\00", align 1

; Function Attrs: cold nounwind optsize uwtable
define internal void @uninit(ptr noundef %0) #1 {
  %2 = alloca ptr, align 8
  %3 = alloca ptr, align 8
  %4 = alloca [256 x i8], align 16
  %5 = alloca i32, align 4
  %6 = alloca i32, align 4
  store ptr %0, ptr %2, align 8, !tbaa !4
  call void @llvm.lifetime.start.p0(i64 8, ptr %3) #11
  %7 = load ptr, ptr %2, align 8, !tbaa !4
  %8 = getelementptr inbounds nuw %struct.AVFilterContext, ptr %7, i32 0, i32 9
  %9 = load ptr, ptr %8, align 8, !tbaa !9
  store ptr %9, ptr %3, align 8, !tbaa !22
  %10 = load ptr, ptr %3, align 8, !tbaa !22
  %11 = getelementptr inbounds nuw %struct.CorrContext, ptr %10, i32 0, i32 6
  %12 = load i64, ptr %11, align 8, !tbaa !33
  %13 = icmp ugt i64 %12, 0
  br i1 %13, label %14, label %85

14:                                               ; preds = %1
  call void @llvm.lifetime.start.p0(i64 256, ptr %4) #11
  %15 = getelementptr inbounds [256 x i8], ptr %4, i64 0, i64 0
  store i8 0, ptr %15, align 16, !tbaa !34
  call void @llvm.lifetime.start.p0(i64 4, ptr %5) #11
  store i32 0, ptr %5, align 4, !tbaa !35
  br label %16

16:                                               ; preds = %60, %14
  %17 = load i32, ptr %5, align 4, !tbaa !35
  %18 = load ptr, ptr %3, align 8, !tbaa !22
  %19 = getelementptr inbounds nuw %struct.CorrContext, ptr %18, i32 0, i32 15
  %20 = load i32, ptr %19, align 8, !tbaa !36
  %21 = icmp slt i32 %17, %20
  br i1 %21, label %23, label %22

22:                                               ; preds = %16
  call void @llvm.lifetime.end.p0(i64 4, ptr %5) #11
  br label %63

23:                                               ; preds = %16
  call void @llvm.lifetime.start.p0(i64 4, ptr %6) #11
  %24 = load ptr, ptr %3, align 8, !tbaa !22
  %25 = getelementptr inbounds nuw %struct.CorrContext, ptr %24, i32 0, i32 8
  %26 = load i32, ptr %25, align 4, !tbaa !37
  %27 = icmp ne i32 %26, 0
  br i1 %27, label %28, label %36

28:                                               ; preds = %23
  %29 = load ptr, ptr %3, align 8, !tbaa !22
  %30 = getelementptr inbounds nuw %struct.CorrContext, ptr %29, i32 0, i32 9
  %31 = load i32, ptr %5, align 4, !tbaa !35
  %32 = sext i32 %31 to i64
  %33 = getelementptr inbounds [4 x i8], ptr %30, i64 0, i64 %32
  %34 = load i8, ptr %33, align 1, !tbaa !34
  %35 = zext i8 %34 to i32
  br label %38

36:                                               ; preds = %23
  %37 = load i32, ptr %5, align 4, !tbaa !35
  br label %38

38:                                               ; preds = %36, %28
  %39 = phi i32 [ %35, %28 ], [ %37, %36 ]
  store i32 %39, ptr %6, align 4, !tbaa !35
  %40 = getelementptr inbounds [256 x i8], ptr %4, i64 0, i64 0
  %41 = load ptr, ptr %3, align 8, !tbaa !22
  %42 = getelementptr inbounds nuw %struct.CorrContext, ptr %41, i32 0, i32 11
  %43 = load i32, ptr %5, align 4, !tbaa !35
  %44 = sext i32 %43 to i64
  %45 = getelementptr inbounds [4 x i8], ptr %42, i64 0, i64 %44
  %46 = load i8, ptr %45, align 1, !tbaa !34
  %47 = sext i8 %46 to i32
  %48 = load ptr, ptr %3, align 8, !tbaa !22
  %49 = getelementptr inbounds nuw %struct.CorrContext, ptr %48, i32 0, i32 5
  %50 = load i32, ptr %6, align 4, !tbaa !35
  %51 = sext i32 %50 to i64
  %52 = getelementptr inbounds [4 x double], ptr %49, i64 0, i64 %51
  %53 = load double, ptr %52, align 8, !tbaa !38
  %54 = load ptr, ptr %3, align 8, !tbaa !22
  %55 = getelementptr inbounds nuw %struct.CorrContext, ptr %54, i32 0, i32 6
  %56 = load i64, ptr %55, align 8, !tbaa !33
  %57 = uitofp i64 %56 to double
  %58 = fdiv nsz double %53, %57
  %59 = call i64 (ptr, i64, ptr, ...) @av_strlcatf(ptr noundef %40, i64 noundef 256, ptr noundef @.str.13, i32 noundef %47, double noundef %58)
  call void @llvm.lifetime.end.p0(i64 4, ptr %6) #11
  br label %60

60:                                               ; preds = %38
  %61 = load i32, ptr %5, align 4, !tbaa !35
  %62 = add nsw i32 %61, 1
  store i32 %62, ptr %5, align 4, !tbaa !35
  br label %16, !llvm.loop !39

63:                                               ; preds = %22
  %64 = load ptr, ptr %2, align 8, !tbaa !4
  %65 = load ptr, ptr %2, align 8, !tbaa !4
  %66 = getelementptr inbounds nuw %struct.AVFilterContext, ptr %65, i32 0, i32 1
  %67 = load ptr, ptr %66, align 8, !tbaa !41
  %68 = getelementptr inbounds nuw %struct.AVFilter, ptr %67, i32 0, i32 0
  %69 = load ptr, ptr %68, align 8, !tbaa !42
  %70 = getelementptr inbounds [256 x i8], ptr %4, i64 0, i64 0
  %71 = load ptr, ptr %3, align 8, !tbaa !22
  %72 = getelementptr inbounds nuw %struct.CorrContext, ptr %71, i32 0, i32 2
  %73 = load double, ptr %72, align 8, !tbaa !44
  %74 = load ptr, ptr %3, align 8, !tbaa !22
  %75 = getelementptr inbounds nuw %struct.CorrContext, ptr %74, i32 0, i32 6
  %76 = load i64, ptr %75, align 8, !tbaa !33
  %77 = uitofp i64 %76 to double
  %78 = fdiv nsz double %73, %77
  %79 = load ptr, ptr %3, align 8, !tbaa !22
  %80 = getelementptr inbounds nuw %struct.CorrContext, ptr %79, i32 0, i32 3
  %81 = load double, ptr %80, align 8, !tbaa !45
  %82 = load ptr, ptr %3, align 8, !tbaa !22
  %83 = getelementptr inbounds nuw %struct.CorrContext, ptr %82, i32 0, i32 4
  %84 = load double, ptr %83, align 8, !tbaa !46
  call void (ptr, i32, ptr, ...) @av_log(ptr noundef %64, i32 noundef 32, ptr noundef @.str.14, ptr noundef %69, ptr noundef %70, double noundef %78, double noundef %81, double noundef %84)
  call void @llvm.lifetime.end.p0(i64 256, ptr %4) #11
  br label %85

85:                                               ; preds = %63, %1
  %86 = load ptr, ptr %3, align 8, !tbaa !22
  %87 = getelementptr inbounds nuw %struct.CorrContext, ptr %86, i32 0, i32 1
  call void @ff_framesync_uninit(ptr noundef %87)
  %88 = load ptr, ptr %3, align 8, !tbaa !22
  %89 = getelementptr inbounds nuw %struct.CorrContext, ptr %88, i32 0, i32 14
  call void @av_freep(ptr noundef %89)
  %90 = load ptr, ptr %3, align 8, !tbaa !22
  %91 = getelementptr inbounds nuw %struct.CorrContext, ptr %90, i32 0, i32 13
  call void @av_freep(ptr noundef %91)
  call void @llvm.lifetime.end.p0(i64 8, ptr %3) #11
  ret void
}